target datalayout = "e-m:e-p270:32:32-p271:32:32-p272:64:64-i64:64-i128:128-f80:128-n8:16:32:64-S128"
target triple = "x86_64-pc-linux-gnu"

%struct.Curl_ssl = type { %struct.curl_ssl_backend, i32, i64, ptr, ptr, ptr, ptr, ptr, ptr, ptr, ptr, ptr, ptr, ptr, ptr, ptr, ptr, ptr, ptr, ptr, ptr, ptr, ptr, ptr, ptr, ptr, ptr, ptr }
%struct.curl_ssl_backend = type { i32, ptr }
%struct.ssl_primary_config = type { ptr, ptr, ptr, ptr, ptr, ptr, ptr, ptr, ptr, ptr, ptr, ptr, i8, i32, i8, i8 }
%struct.Curl_ssl_session = type { ptr, ptr, ptr, ptr, i64, i64, i32, i32, %struct.ssl_primary_config }

@Curl_ssl = dso_local global ptr @Curl_ssl_openssl, align 8
@Curl_cfree = external global ptr, align 8

; Function Attrs: nounwind uwtable
define internal void @Curl_free_primary_ssl_config(ptr noundef %0) #0 {
  %2 = alloca ptr, align 8
  store ptr %0, ptr %2, align 8
  br label %3

3:                                                ; preds = %1
  %4 = load ptr, ptr @Curl_cfree, align 8
  %5 = load ptr, ptr %2, align 8
  %6 = getelementptr inbounds %struct.ssl_primary_config, ptr %5, i32 0, i32 0
  %7 = load ptr, ptr %6, align 8
  call void %4(ptr noundef %7)
  %8 = load ptr, ptr %2, align 8
  %9 = getelementptr inbounds %struct.ssl_primary_config, ptr %8, i32 0, i32 0
  store ptr null, ptr %9, align 8
  br label %10

10:                                               ; preds = %3
  br label %11

11:                                               ; preds = %10
  %12 = load ptr, ptr @Curl_cfree, align 8
  %13 = load ptr, ptr %2, align 8
  %14 = getelementptr inbounds %struct.ssl_primary_config, ptr %13, i32 0, i32 1
  %15 = load ptr, ptr %14, align 8
  call void %12(ptr noundef %15)
  %16 = load ptr, ptr %2, align 8
  %17 = getelementptr inbounds %struct.ssl_primary_config, ptr %16, i32 0, i32 1
  store ptr null, ptr %17, align 8
  br label %18

18:                                               ; preds = %11
  br label %19

19:                                               ; preds = %18
  %20 = load ptr, ptr @Curl_cfree, align 8
  %21 = load ptr, ptr %2, align 8
  %22 = getelementptr inbounds %struct.ssl_primary_config, ptr %21, i32 0, i32 2
  %23 = load ptr, ptr %22, align 8
  call void %20(ptr noundef %23)
  %24 = load ptr, ptr %2, align 8
  %25 = getelementptr inbounds %struct.ssl_primary_config, ptr %24, i32 0, i32 2
  store ptr null, ptr %25, align 8
  br label %26

26:                                               ; preds = %19
  br label %27

27:                                               ; preds = %26
  %28 = load ptr, ptr @Curl_cfree, align 8
  %29 = load ptr, ptr %2, align 8
  %30 = getelementptr inbounds %struct.ssl_primary_config, ptr %29, i32 0, i32 3
  %31 = load ptr, ptr %30, align 8
  call void %28(ptr noundef %31)
  %32 = load ptr, ptr %2, align 8
  %33 = getelementptr inbounds %struct.ssl_primary_config, ptr %32, i32 0, i32 3
  store ptr null, ptr %33, align 8
  br label %34

34:                                               ; preds = %27
  br label %35

35:                                               ; preds = %34
  %36 = load ptr, ptr @Curl_cfree, align 8
  %37 = load ptr, ptr %2, align 8
  %38 = getelementptr inbounds %struct.ssl_primary_config, ptr %37, i32 0, i32 4
  %39 = load ptr, ptr %38, align 8
  call void %36(ptr noundef %39)
  %40 = load ptr, ptr %2, align 8
  %41 = getelementptr inbounds %struct.ssl_primary_config, ptr %40, i32 0, i32 4
  store ptr null, ptr %41, align 8
  br label %42

42:                                               ; preds = %35
  br label %43

43:                                               ; preds = %42
  %44 = load ptr, ptr @Curl_cfree, align 8
  %45 = load ptr, ptr %2, align 8
  %46 = getelementptr inbounds %struct.ssl_primary_config, ptr %45, i32 0, i32 5
  %47 = load ptr, ptr %46, align 8
  call void %44(ptr noundef %47)
  %48 = load ptr, ptr %2, align 8
  %49 = getelementptr inbounds %struct.ssl_primary_config, ptr %48, i32 0, i32 5
  store ptr null, ptr %49, align 8
  br label %50

50:                                               ; preds = %43
  br label %51

51:                                               ; preds = %50
  %52 = load ptr, ptr @Curl_cfree, align 8
  %53 = load ptr, ptr %2, align 8
  %54 = getelementptr inbounds %struct.ssl_primary_config, ptr %53, i32 0, i32 6
  %55 = load ptr, ptr %54, align 8
  call void %52(ptr noundef %55)
  %56 = load ptr, ptr %2, align 8
  %57 = getelementptr inbounds %struct.ssl_primary_config, ptr %56, i32 0, i32 6
  store ptr null, ptr %57, align 8
  br label %58

58:                                               ; preds = %51
  br label %59

59:                                               ; preds = %58
  %60 = load ptr, ptr @Curl_cfree, align 8
  %61 = load ptr, ptr %2, align 8
  %62 = getelementptr inbounds %struct.ssl_primary_config, ptr %61, i32 0, i32 8
  %63 = load ptr, ptr %62, align 8
  call void %60(ptr noundef %63)
  %64 = load ptr, ptr %2, align 8
  %65 = getelementptr inbounds %struct.ssl_primary_config, ptr %64, i32 0, i32 8
  store ptr null, ptr %65, align 8
  br label %66

66:                                               ; preds = %59
  br label %67

67:                                               ; preds = %66
  %68 = load ptr, ptr @Curl_cfree, align 8
  %69 = load ptr, ptr %2, align 8
  %70 = getelementptr inbounds %struct.ssl_primary_config, ptr %69, i32 0, i32 9
  %71 = load ptr, ptr %70, align 8
  call void %68(ptr noundef %71)
  %72 = load ptr, ptr %2, align 8
  %73 = getelementptr inbounds %struct.ssl_primary_config, ptr %72, i32 0, i32 9
  store ptr null, ptr %73, align 8
  br label %74

74:                                               ; preds = %67
  br label %75

75:                                               ; preds = %74
  %76 = load ptr, ptr @Curl_cfree, align 8
  %77 = load ptr, ptr %2, align 8
  %78 = getelementptr inbounds %struct.ssl_primary_config, ptr %77, i32 0, i32 10
  %79 = load ptr, ptr %78, align 8
  call void %76(ptr noundef %79)
  %80 = load ptr, ptr %2, align 8
  %81 = getelementptr inbounds %struct.ssl_primary_config, ptr %80, i32 0, i32 10
  store ptr null, ptr %81, align 8
  br label %82

82:                                               ; preds = %75
  br label %83

83:                                               ; preds = %82
  %84 = load ptr, ptr @Curl_cfree, align 8
  %85 = load ptr, ptr %2, align 8
  %86 = getelementptr inbounds %struct.ssl_primary_config, ptr %85, i32 0, i32 11
  %87 = load ptr, ptr %86, align 8
  call void %84(ptr noundef %87)
  %88 = load ptr, ptr %2, align 8
  %89 = getelementptr inbounds %struct.ssl_primary_config, ptr %88, i32 0, i32 11
  store ptr null, ptr %89, align 8
  br label %90

90:                                               ; preds = %83
  br label %91

91:                                               ; preds = %90
  %92 = load ptr, ptr @Curl_cfree, align 8
  %93 = load ptr, ptr %2, align 8
  %94 = getelementptr inbounds %struct.ssl_primary_config, ptr %93, i32 0, i32 7
  %95 = load ptr, ptr %94, align 8
  call void %92(ptr noundef %95)
  %96 = load ptr, ptr %2, align 8
  %97 = getelementptr inbounds %struct.ssl_primary_config, ptr %96, i32 0, i32 7
  store ptr null, ptr %97, align 8
  br label %98

98:                                               ; preds = %91
  ret void
}

; Function Attrs: nounwind uwtable
define dso_local void @Curl_ssl_kill_session(ptr noundef %0) #0 {
  %2 = alloca ptr, align 8
  store ptr %0, ptr %2, align 8
  %3 = load ptr, ptr %2, align 8
  %4 = getelementptr inbounds %struct.Curl_ssl_session, ptr %3, i32 0, i32 3
  %5 = load ptr, ptr %4, align 8
  %6 = icmp ne ptr %5, null
  br i1 %6, label %7, label %36

7:                                                ; preds = %1
  %8 = load ptr, ptr @Curl_ssl, align 8
  %9 = getelementptr inbounds %struct.Curl_ssl, ptr %8, i32 0, i32 17
  %10 = load ptr, ptr %9, align 8
  %11 = load ptr, ptr %2, align 8
  %12 = getelementptr inbounds %struct.Curl_ssl_session, ptr %11, i32 0, i32 3
  %13 = load ptr, ptr %12, align 8
  call void %10(ptr noundef %13)
  %14 = load ptr, ptr %2, align 8
  %15 = getelementptr inbounds %struct.Curl_ssl_session, ptr %14, i32 0, i32 3
  store ptr null, ptr %15, align 8
  %16 = load ptr, ptr %2, align 8
  %17 = getelementptr inbounds %struct.Curl_ssl_session, ptr %16, i32 0, i32 5
  store i64 0, ptr %17, align 8
  %18 = load ptr, ptr %2, align 8
  %19 = getelementptr inbounds %struct.Curl_ssl_session, ptr %18, i32 0, i32 8
  call void @Curl_free_primary_ssl_config(ptr noundef %19)
  br label %20

20:                                               ; preds = %7
  %21 = load ptr, ptr @Curl_cfree, align 8
  %22 = load ptr, ptr %2, align 8
  %23 = getelementptr inbounds %struct.Curl_ssl_session, ptr %22, i32 0, i32 0
  %24 = load ptr, ptr %23, align 8
  call void %21(ptr noundef %24)
  %25 = load ptr, ptr %2, align 8
  %26 = getelementptr inbounds %struct.Curl_ssl_session, ptr %25, i32 0, i32 0
  store ptr null, ptr %26, align 8
  br label %27

27:                                               ; preds = %20
  br label %28

28:                                               ; preds = %27
  %29 = load ptr, ptr @Curl_cfree, align 8
  %30 = load ptr, ptr %2, align 8
  %31 = getelementptr inbounds %struct.Curl_ssl_session, ptr %30, i32 0, i32 1
  %32 = load ptr, ptr %31, align 8
  call void %29(ptr noundef %32)
  %33 = load ptr, ptr %2, align 8
  %34 = getelementptr inbounds %struct.Curl_ssl_session, ptr %33, i32 0, i32 1
  store ptr null, ptr %34, align 8
  br label %35

35:                                               ; preds = %28
  br label %36

36:                                               ; preds = %35, %1
  ret void
}