; Function Attrs: nounwind uwtable
define dso_local void @Curl_ssl_kill_session(ptr noundef captures(none) %0) local_unnamed_addr #2 {
  %2 = getelementptr inbounds nuw i8, ptr %0, i64 24
  %3 = load ptr, ptr %2, align 8
  %.not = icmp eq ptr %3, null
  br i1 %.not, label %50, label %4

4:                                                ; preds = %1
  %5 = load ptr, ptr @Curl_ssl, align 8
  %6 = getelementptr inbounds nuw i8, ptr %5, i64 144
  %7 = load ptr, ptr %6, align 8
  tail call void %7(ptr noundef nonnull %3) #18
  store ptr null, ptr %2, align 8
  %8 = getelementptr inbounds nuw i8, ptr %0, i64 40
  store i64 0, ptr %8, align 8
  %9 = getelementptr inbounds nuw i8, ptr %0, i64 56
  %10 = load ptr, ptr @Curl_cfree, align 8
  %11 = load ptr, ptr %9, align 8
  tail call void %10(ptr noundef %11) #18
  store ptr null, ptr %9, align 8
  %12 = load ptr, ptr @Curl_cfree, align 8
  %13 = getelementptr inbounds nuw i8, ptr %0, i64 64
  %14 = load ptr, ptr %13, align 8
  tail call void %12(ptr noundef %14) #18
  store ptr null, ptr %13, align 8
  %15 = load ptr, ptr @Curl_cfree, align 8
  %16 = getelementptr inbounds nuw i8, ptr %0, i64 72
  %17 = load ptr, ptr %16, align 8
  tail call void %15(ptr noundef %17) #18
  store ptr null, ptr %16, align 8
  %18 = load ptr, ptr @Curl_cfree, align 8
  %19 = getelementptr inbounds nuw i8, ptr %0, i64 80
  %20 = load ptr, ptr %19, align 8
  tail call void %18(ptr noundef %20) #18
  store ptr null, ptr %19, align 8
  %21 = load ptr, ptr @Curl_cfree, align 8
  %22 = getelementptr inbounds nuw i8, ptr %0, i64 88
  %23 = load ptr, ptr %22, align 8
  tail call void %21(ptr noundef %23) #18
  store ptr null, ptr %22, align 8
  %24 = load ptr, ptr @Curl_cfree, align 8
  %25 = getelementptr inbounds nuw i8, ptr %0, i64 96
  %26 = load ptr, ptr %25, align 8
  tail call void %24(ptr noundef %26) #18
  store ptr null, ptr %25, align 8
  %27 = load ptr, ptr @Curl_cfree, align 8
  %28 = getelementptr inbounds nuw i8, ptr %0, i64 104
  %29 = load ptr, ptr %28, align 8
  tail call void %27(ptr noundef %29) #18
  store ptr null, ptr %28, align 8
  %30 = load ptr, ptr @Curl_cfree, align 8
  %31 = getelementptr inbounds nuw i8, ptr %0, i64 120
  %32 = load ptr, ptr %31, align 8
  tail call void %30(ptr noundef %32) #18
  store ptr null, ptr %31, align 8
  %33 = load ptr, ptr @Curl_cfree, align 8
  %34 = getelementptr inbounds nuw i8, ptr %0, i64 128
  %35 = load ptr, ptr %34, align 8
  tail call void %33(ptr noundef %35) #18
  store ptr null, ptr %34, align 8
  %36 = load ptr, ptr @Curl_cfree, align 8
  %37 = getelementptr inbounds nuw i8, ptr %0, i64 136
  %38 = load ptr, ptr %37, align 8
  tail call void %36(ptr noundef %38) #18
  store ptr null, ptr %37, align 8
  %39 = load ptr, ptr @Curl_cfree, align 8
  %40 = getelementptr inbounds nuw i8, ptr %0, i64 144
  %41 = load ptr, ptr %40, align 8
  tail call void %39(ptr noundef %41) #18
  store ptr null, ptr %40, align 8
  %42 = load ptr, ptr @Curl_cfree, align 8
  %43 = getelementptr inbounds nuw i8, ptr %0, i64 112
  %44 = load ptr, ptr %43, align 8
  tail call void %42(ptr noundef %44) #18
  store ptr null, ptr %43, align 8
  %45 = load ptr, ptr @Curl_cfree, align 8
  %46 = load ptr, ptr %0, align 8
  tail call void %45(ptr noundef %46) #18
  store ptr null, ptr %0, align 8
  %47 = load ptr, ptr @Curl_cfree, align 8
  %48 = getelementptr inbounds nuw i8, ptr %0, i64 8
  %49 = load ptr, ptr %48, align 8
  tail call void %47(ptr noundef %49) #18
  store ptr null, ptr %48, align 8
  br label %50

50:                                               ; preds = %4, %1
  ret void
}